target datalayout = "e-m:e-p270:32:32-p271:32:32-p272:64:64-i64:64-i128:128-f80:128-n8:16:32:64-S128"
target triple = "x86_64-pc-linux-gnu"

; Function Attrs: nounwind uwtable
define internal void @sbr_qmf_deint_bfly_c(ptr noundef %0, ptr noundef %1, ptr noundef %2) #1 {
  %4 = alloca ptr, align 8
  %5 = alloca ptr, align 8
  %6 = alloca ptr, align 8
  %7 = alloca i32, align 4
  store ptr %0, ptr %4, align 8, !tbaa !21
  store ptr %1, ptr %5, align 8, !tbaa !21
  store ptr %2, ptr %6, align 8, !tbaa !21
  call void @llvm.lifetime.start.p0(i64 4, ptr %7) #5
  store i32 0, ptr %7, align 4, !tbaa !23
  br label %8

8:                                                ; preds = %45, %3
  %9 = load i32, ptr %7, align 4, !tbaa !23
  %10 = icmp slt i32 %9, 64
  br i1 %10, label %11, label %48

11:                                               ; preds = %8
  %12 = load ptr, ptr %5, align 8, !tbaa !21
  %13 = load i32, ptr %7, align 4, !tbaa !23
  %14 = sext i32 %13 to i64
  %15 = getelementptr inbounds float, ptr %12, i64 %14
  %16 = load float, ptr %15, align 4, !tbaa !25
  %17 = load ptr, ptr %6, align 8, !tbaa !21
  %18 = load i32, ptr %7, align 4, !tbaa !23
  %19 = sub nsw i32 63, %18
  %20 = sext i32 %19 to i64
  %21 = getelementptr inbounds float, ptr %17, i64 %20
  %22 = load float, ptr %21, align 4, !tbaa !25
  %23 = fsub nsz float %16, %22
  %24 = load ptr, ptr %4, align 8, !tbaa !21
  %25 = load i32, ptr %7, align 4, !tbaa !23
  %26 = sext i32 %25 to i64
  %27 = getelementptr inbounds float, ptr %24, i64 %26
  store float %23, ptr %27, align 4, !tbaa !25
  %28 = load ptr, ptr %5, align 8, !tbaa !21
  %29 = load i32, ptr %7, align 4, !tbaa !23
  %30 = sext i32 %29 to i64
  %31 = getelementptr inbounds float, ptr %28, i64 %30
  %32 = load float, ptr %31, align 4, !tbaa !25
  %33 = load ptr, ptr %6, align 8, !tbaa !21
  %34 = load i32, ptr %7, align 4, !tbaa !23
  %35 = sub nsw i32 63, %34
  %36 = sext i32 %35 to i64
  %37 = getelementptr inbounds float, ptr %33, i64 %36
  %38 = load float, ptr %37, align 4, !tbaa !25
  %39 = fadd nsz float %32, %38
  %40 = load ptr, ptr %4, align 8, !tbaa !21
  %41 = load i32, ptr %7, align 4, !tbaa !23
  %42 = sub nsw i32 127, %41
  %43 = sext i32 %42 to i64
  %44 = getelementptr inbounds float, ptr %40, i64 %43
  store float %39, ptr %44, align 4, !tbaa !25
  br label %45

45:                                               ; preds = %11
  %46 = load i32, ptr %7, align 4, !tbaa !23
  %47 = add nsw i32 %46, 1
  store i32 %47, ptr %7, align 4, !tbaa !23
  br label %8, !llvm.loop !37

48:                                               ; preds = %8
  call void @llvm.lifetime.end.p0(i64 4, ptr %7) #5
  ret void
}