; Function Attrs: nofree norecurse nosync nounwind memory(argmem: readwrite) uwtable
define internal void @sbr_qmf_deint_bfly_c(ptr noundef writeonly captures(none) %0, ptr noundef readonly captures(none) %1, ptr noundef readonly captures(none) %2) #1 {
  br label %4

4:                                                ; preds = %3, %4
  %indvars.iv = phi i64 [ 0, %3 ], [ %indvars.iv.next, %4 ]
  %5 = getelementptr inbounds nuw float, ptr %1, i64 %indvars.iv
  %6 = load float, ptr %5, align 4, !tbaa !19
  %7 = sub nuw nsw i64 63, %indvars.iv
  %8 = getelementptr inbounds nuw float, ptr %2, i64 %7
  %9 = load float, ptr %8, align 4, !tbaa !19
  %10 = fsub nsz float %6, %9
  %11 = getelementptr inbounds nuw float, ptr %0, i64 %indvars.iv
  store float %10, ptr %11, align 4, !tbaa !19
  %12 = load float, ptr %5, align 4, !tbaa !19
  %13 = load float, ptr %8, align 4, !tbaa !19
  %14 = fadd nsz float %12, %13
  %15 = sub nuw nsw i64 127, %indvars.iv
  %16 = getelementptr inbounds nuw float, ptr %0, i64 %15
  store float %14, ptr %16, align 4, !tbaa !19
  %indvars.iv.next = add nuw nsw i64 %indvars.iv, 1
  %exitcond.not = icmp eq i64 %indvars.iv.next, 64
  br i1 %exitcond.not, label %17, label %4, !llvm.loop !29

17:                                               ; preds = %4
  ret void
}